; Function Attrs: mustprogress uwtable
define hidden void @_ZN4cvc58internal6theory17CombinationEngine10finishInitEv(ptr noundef nonnull align 8 dereferenceable(96) %0) local_unnamed_addr #4 align 2 {
  %2 = getelementptr inbounds nuw i8, ptr %0, i64 64
  %3 = load ptr, ptr %2, align 8, !tbaa !261
  %4 = load ptr, ptr %3, align 8, !tbaa !3
  %5 = getelementptr inbounds nuw i8, ptr %4, i64 16
  %6 = load ptr, ptr %5, align 8
  tail call void %6(ptr noundef nonnull align 8 dereferenceable(80) %3)
  %7 = load ptr, ptr %0, align 8, !tbaa !3
  %8 = getelementptr inbounds nuw i8, ptr %7, i64 40
  %9 = load ptr, ptr %8, align 8
  %10 = tail call noundef ptr %9(ptr noundef nonnull align 8 dereferenceable(96) %0)
  %11 = getelementptr inbounds nuw i8, ptr %0, i64 72
  %12 = load ptr, ptr %11, align 8, !tbaa !262
  tail call void @_ZN4cvc58internal6theory12ModelManager10finishInitEPNS1_2eq20EqualityEngineNotifyE(ptr noundef nonnull align 8 dereferenceable(122) %12, ptr noundef %10)
  ret void
}